target datalayout = "e-m:e-p270:32:32-p271:32:32-p272:64:64-i64:64-i128:128-f80:128-n8:16:32:64-S128"
target triple = "x86_64-pc-linux-gnu"

%struct.SDL_PixelFormatDetails = type { i32, i8, i8, [2 x i8], i32, i32, i32, i32, i8, i8, i8, i8, i8, i8, i8, i8 }
%struct.SDL_Palette = type { i32, ptr, i32, i32 }
%struct.SDL_Color = type { i8, i8, i8, i8 }

@SDL_expand_byte = hidden global [9 x ptr] [ptr @lookup_0, ptr @lookup_1, ptr @lookup_2, ptr @lookup_3, ptr @lookup_4, ptr @lookup_5, ptr @lookup_6, ptr @lookup_7, ptr @lookup_8], align 16

; Function Attrs: nounwind uwtable
define hidden void @SDL_GetRGB_REAL(i32 noundef %0, ptr noundef %1, ptr noundef %2, ptr noundef %3, ptr noundef %4, ptr noundef %5) #0 {
  %7 = alloca i32, align 4
  %8 = alloca ptr, align 8
  %9 = alloca ptr, align 8
  %10 = alloca ptr, align 8
  %11 = alloca ptr, align 8
  %12 = alloca ptr, align 8
  %13 = alloca i8, align 1
  %14 = alloca i32, align 4
  %15 = alloca i32, align 4
  %16 = alloca i32, align 4
  store i32 %0, ptr %7, align 4
  store ptr %1, ptr %8, align 8
  store ptr %2, ptr %9, align 8
  store ptr %3, ptr %10, align 8
  store ptr %4, ptr %11, align 8
  store ptr %5, ptr %12, align 8
  call void @llvm.lifetime.start.p0(i64 1, ptr %13) #7
  %17 = load ptr, ptr %10, align 8
  %18 = icmp ne ptr %17, null
  br i1 %18, label %20, label %19

19:                                               ; preds = %6
  store ptr %13, ptr %10, align 8
  br label %20

20:                                               ; preds = %19, %6
  %21 = load ptr, ptr %11, align 8
  %22 = icmp ne ptr %21, null
  br i1 %22, label %24, label %23

23:                                               ; preds = %20
  store ptr %13, ptr %11, align 8
  br label %24

24:                                               ; preds = %23, %20
  %25 = load ptr, ptr %12, align 8
  %26 = icmp ne ptr %25, null
  br i1 %26, label %28, label %27

27:                                               ; preds = %24
  store ptr %13, ptr %12, align 8
  br label %28

28:                                               ; preds = %27, %24
  %29 = load ptr, ptr %8, align 8
  %30 = icmp ne ptr %29, null
  br i1 %30, label %35, label %31

31:                                               ; preds = %28
  %32 = load ptr, ptr %12, align 8
  store i8 0, ptr %32, align 1
  %33 = load ptr, ptr %11, align 8
  store i8 0, ptr %33, align 1
  %34 = load ptr, ptr %10, align 8
  store i8 0, ptr %34, align 1
  store i32 1, ptr %14, align 4
  br label %251

35:                                               ; preds = %28
  %36 = load ptr, ptr %8, align 8
  %37 = getelementptr inbounds nuw %struct.SDL_PixelFormatDetails, ptr %36, i32 0, i32 0
  %38 = load i32, ptr %37, align 4
  %39 = icmp ne i32 %38, 0
  br i1 %39, label %40, label %47

40:                                               ; preds = %35
  %41 = load ptr, ptr %8, align 8
  %42 = getelementptr inbounds nuw %struct.SDL_PixelFormatDetails, ptr %41, i32 0, i32 0
  %43 = load i32, ptr %42, align 4
  %44 = lshr i32 %43, 28
  %45 = and i32 %44, 15
  %46 = icmp ne i32 %45, 1
  br i1 %46, label %117, label %47

47:                                               ; preds = %40, %35
  %48 = load ptr, ptr %8, align 8
  %49 = getelementptr inbounds nuw %struct.SDL_PixelFormatDetails, ptr %48, i32 0, i32 0
  %50 = load i32, ptr %49, align 4
  %51 = lshr i32 %50, 24
  %52 = and i32 %51, 15
  %53 = icmp eq i32 %52, 1
  br i1 %53, label %75, label %54

54:                                               ; preds = %47
  %55 = load ptr, ptr %8, align 8
  %56 = getelementptr inbounds nuw %struct.SDL_PixelFormatDetails, ptr %55, i32 0, i32 0
  %57 = load i32, ptr %56, align 4
  %58 = lshr i32 %57, 24
  %59 = and i32 %58, 15
  %60 = icmp eq i32 %59, 12
  br i1 %60, label %75, label %61

61:                                               ; preds = %54
  %62 = load ptr, ptr %8, align 8
  %63 = getelementptr inbounds nuw %struct.SDL_PixelFormatDetails, ptr %62, i32 0, i32 0
  %64 = load i32, ptr %63, align 4
  %65 = lshr i32 %64, 24
  %66 = and i32 %65, 15
  %67 = icmp eq i32 %66, 2
  br i1 %67, label %75, label %68

68:                                               ; preds = %61
  %69 = load ptr, ptr %8, align 8
  %70 = getelementptr inbounds nuw %struct.SDL_PixelFormatDetails, ptr %69, i32 0, i32 0
  %71 = load i32, ptr %70, align 4
  %72 = lshr i32 %71, 24
  %73 = and i32 %72, 15
  %74 = icmp eq i32 %73, 3
  br i1 %74, label %75, label %117

75:                                               ; preds = %68, %61, %54, %47
  %76 = load ptr, ptr %9, align 8
  %77 = icmp ne ptr %76, null
  br i1 %77, label %78, label %112

78:                                               ; preds = %75
  %79 = load i32, ptr %7, align 4
  %80 = load ptr, ptr %9, align 8
  %81 = getelementptr inbounds nuw %struct.SDL_Palette, ptr %80, i32 0, i32 0
  %82 = load i32, ptr %81, align 8
  %83 = icmp ult i32 %79, %82
  br i1 %83, label %84, label %112

84:                                               ; preds = %78
  %85 = load ptr, ptr %9, align 8
  %86 = getelementptr inbounds nuw %struct.SDL_Palette, ptr %85, i32 0, i32 1
  %87 = load ptr, ptr %86, align 8
  %88 = load i32, ptr %7, align 4
  %89 = zext i32 %88 to i64
  %90 = getelementptr inbounds nuw %struct.SDL_Color, ptr %87, i64 %89
  %91 = getelementptr inbounds nuw %struct.SDL_Color, ptr %90, i32 0, i32 0
  %92 = load i8, ptr %91, align 1
  %93 = load ptr, ptr %10, align 8
  store i8 %92, ptr %93, align 1
  %94 = load ptr, ptr %9, align 8
  %95 = getelementptr inbounds nuw %struct.SDL_Palette, ptr %94, i32 0, i32 1
  %96 = load ptr, ptr %95, align 8
  %97 = load i32, ptr %7, align 4
  %98 = zext i32 %97 to i64
  %99 = getelementptr inbounds nuw %struct.SDL_Color, ptr %96, i64 %98
  %100 = getelementptr inbounds nuw %struct.SDL_Color, ptr %99, i32 0, i32 1
  %101 = load i8, ptr %100, align 1
  %102 = load ptr, ptr %11, align 8
  store i8 %101, ptr %102, align 1
  %103 = load ptr, ptr %9, align 8
  %104 = getelementptr inbounds nuw %struct.SDL_Palette, ptr %103, i32 0, i32 1
  %105 = load ptr, ptr %104, align 8
  %106 = load i32, ptr %7, align 4
  %107 = zext i32 %106 to i64
  %108 = getelementptr inbounds nuw %struct.SDL_Color, ptr %105, i64 %107
  %109 = getelementptr inbounds nuw %struct.SDL_Color, ptr %108, i32 0, i32 2
  %110 = load i8, ptr %109, align 1
  %111 = load ptr, ptr %12, align 8
  store i8 %110, ptr %111, align 1
  br label %116

112:                                              ; preds = %78, %75
  %113 = load ptr, ptr %12, align 8
  store i8 0, ptr %113, align 1
  %114 = load ptr, ptr %11, align 8
  store i8 0, ptr %114, align 1
  %115 = load ptr, ptr %10, align 8
  store i8 0, ptr %115, align 1
  br label %116

116:                                              ; preds = %112, %84
  store i32 1, ptr %14, align 4
  br label %251

117:                                              ; preds = %68, %40
  %118 = load ptr, ptr %8, align 8
  %119 = getelementptr inbounds nuw %struct.SDL_PixelFormatDetails, ptr %118, i32 0, i32 0
  %120 = load i32, ptr %119, align 4
  %121 = icmp ne i32 %120, 0
  br i1 %121, label %122, label %129

122:                                              ; preds = %117
  %123 = load ptr, ptr %8, align 8
  %124 = getelementptr inbounds nuw %struct.SDL_PixelFormatDetails, ptr %123, i32 0, i32 0
  %125 = load i32, ptr %124, align 4
  %126 = lshr i32 %125, 28
  %127 = and i32 %126, 15
  %128 = icmp ne i32 %127, 1
  br i1 %128, label %186, label %129

129:                                              ; preds = %122, %117
  %130 = load ptr, ptr %8, align 8
  %131 = getelementptr inbounds nuw %struct.SDL_PixelFormatDetails, ptr %130, i32 0, i32 0
  %132 = load i32, ptr %131, align 4
  %133 = lshr i32 %132, 24
  %134 = and i32 %133, 15
  %135 = icmp eq i32 %134, 6
  br i1 %135, label %136, label %186

136:                                              ; preds = %129
  %137 = load ptr, ptr %8, align 8
  %138 = getelementptr inbounds nuw %struct.SDL_PixelFormatDetails, ptr %137, i32 0, i32 0
  %139 = load i32, ptr %138, align 4
  %140 = lshr i32 %139, 16
  %141 = and i32 %140, 15
  %142 = icmp eq i32 %141, 7
  br i1 %142, label %143, label %186

143:                                              ; preds = %136
  call void @llvm.lifetime.start.p0(i64 4, ptr %15) #7
  %144 = load i32, ptr %7, align 4
  %145 = load ptr, ptr %8, align 8
  %146 = getelementptr inbounds nuw %struct.SDL_PixelFormatDetails, ptr %145, i32 0, i32 4
  %147 = load i32, ptr %146, align 4
  %148 = and i32 %144, %147
  %149 = load ptr, ptr %8, align 8
  %150 = getelementptr inbounds nuw %struct.SDL_PixelFormatDetails, ptr %149, i32 0, i32 12
  %151 = load i8, ptr %150, align 4
  %152 = zext i8 %151 to i32
  %153 = lshr i32 %148, %152
  store i32 %153, ptr %15, align 4
  %154 = load i32, ptr %15, align 4
  %155 = lshr i32 %154, 2
  %156 = trunc i32 %155 to i8
  %157 = load ptr, ptr %10, align 8
  store i8 %156, ptr %157, align 1
  %158 = load i32, ptr %7, align 4
  %159 = load ptr, ptr %8, align 8
  %160 = getelementptr inbounds nuw %struct.SDL_PixelFormatDetails, ptr %159, i32 0, i32 5
  %161 = load i32, ptr %160, align 4
  %162 = and i32 %158, %161
  %163 = load ptr, ptr %8, align 8
  %164 = getelementptr inbounds nuw %struct.SDL_PixelFormatDetails, ptr %163, i32 0, i32 13
  %165 = load i8, ptr %164, align 1
  %166 = zext i8 %165 to i32
  %167 = lshr i32 %162, %166
  store i32 %167, ptr %15, align 4
  %168 = load i32, ptr %15, align 4
  %169 = lshr i32 %168, 2
  %170 = trunc i32 %169 to i8
  %171 = load ptr, ptr %11, align 8
  store i8 %170, ptr %171, align 1
  %172 = load i32, ptr %7, align 4
  %173 = load ptr, ptr %8, align 8
  %174 = getelementptr inbounds nuw %struct.SDL_PixelFormatDetails, ptr %173, i32 0, i32 6
  %175 = load i32, ptr %174, align 4
  %176 = and i32 %172, %175
  %177 = load ptr, ptr %8, align 8
  %178 = getelementptr inbounds nuw %struct.SDL_PixelFormatDetails, ptr %177, i32 0, i32 14
  %179 = load i8, ptr %178, align 2
  %180 = zext i8 %179 to i32
  %181 = lshr i32 %176, %180
  store i32 %181, ptr %15, align 4
  %182 = load i32, ptr %15, align 4
  %183 = lshr i32 %182, 2
  %184 = trunc i32 %183 to i8
  %185 = load ptr, ptr %12, align 8
  store i8 %184, ptr %185, align 1
  call void @llvm.lifetime.end.p0(i64 4, ptr %15) #7
  br label %250

186:                                              ; preds = %136, %129, %122
  call void @llvm.lifetime.start.p0(i64 4, ptr %16) #7
  %187 = load i32, ptr %7, align 4
  %188 = load ptr, ptr %8, align 8
  %189 = getelementptr inbounds nuw %struct.SDL_PixelFormatDetails, ptr %188, i32 0, i32 4
  %190 = load i32, ptr %189, align 4
  %191 = and i32 %187, %190
  %192 = load ptr, ptr %8, align 8
  %193 = getelementptr inbounds nuw %struct.SDL_PixelFormatDetails, ptr %192, i32 0, i32 12
  %194 = load i8, ptr %193, align 4
  %195 = zext i8 %194 to i32
  %196 = lshr i32 %191, %195
  store i32 %196, ptr %16, align 4
  %197 = load ptr, ptr %8, align 8
  %198 = getelementptr inbounds nuw %struct.SDL_PixelFormatDetails, ptr %197, i32 0, i32 8
  %199 = load i8, ptr %198, align 4
  %200 = zext i8 %199 to i64
  %201 = getelementptr inbounds nuw [9 x ptr], ptr @SDL_expand_byte, i64 0, i64 %200
  %202 = load ptr, ptr %201, align 8
  %203 = load i32, ptr %16, align 4
  %204 = zext i32 %203 to i64
  %205 = getelementptr inbounds nuw i8, ptr %202, i64 %204
  %206 = load i8, ptr %205, align 1
  %207 = load ptr, ptr %10, align 8
  store i8 %206, ptr %207, align 1
  %208 = load i32, ptr %7, align 4
  %209 = load ptr, ptr %8, align 8
  %210 = getelementptr inbounds nuw %struct.SDL_PixelFormatDetails, ptr %209, i32 0, i32 5
  %211 = load i32, ptr %210, align 4
  %212 = and i32 %208, %211
  %213 = load ptr, ptr %8, align 8
  %214 = getelementptr inbounds nuw %struct.SDL_PixelFormatDetails, ptr %213, i32 0, i32 13
  %215 = load i8, ptr %214, align 1
  %216 = zext i8 %215 to i32
  %217 = lshr i32 %212, %216
  store i32 %217, ptr %16, align 4
  %218 = load ptr, ptr %8, align 8
  %219 = getelementptr inbounds nuw %struct.SDL_PixelFormatDetails, ptr %218, i32 0, i32 9
  %220 = load i8, ptr %219, align 1
  %221 = zext i8 %220 to i64
  %222 = getelementptr inbounds nuw [9 x ptr], ptr @SDL_expand_byte, i64 0, i64 %221
  %223 = load ptr, ptr %222, align 8
  %224 = load i32, ptr %16, align 4
  %225 = zext i32 %224 to i64
  %226 = getelementptr inbounds nuw i8, ptr %223, i64 %225
  %227 = load i8, ptr %226, align 1
  %228 = load ptr, ptr %11, align 8
  store i8 %227, ptr %228, align 1
  %229 = load i32, ptr %7, align 4
  %230 = load ptr, ptr %8, align 8
  %231 = getelementptr inbounds nuw %struct.SDL_PixelFormatDetails, ptr %230, i32 0, i32 6
  %232 = load i32, ptr %231, align 4
  %233 = and i32 %229, %232
  %234 = load ptr, ptr %8, align 8
  %235 = getelementptr inbounds nuw %struct.SDL_PixelFormatDetails, ptr %234, i32 0, i32 14
  %236 = load i8, ptr %235, align 2
  %237 = zext i8 %236 to i32
  %238 = lshr i32 %233, %237
  store i32 %238, ptr %16, align 4
  %239 = load ptr, ptr %8, align 8
  %240 = getelementptr inbounds nuw %struct.SDL_PixelFormatDetails, ptr %239, i32 0, i32 10
  %241 = load i8, ptr %240, align 2
  %242 = zext i8 %241 to i64
  %243 = getelementptr inbounds nuw [9 x ptr], ptr @SDL_expand_byte, i64 0, i64 %242
  %244 = load ptr, ptr %243, align 8
  %245 = load i32, ptr %16, align 4
  %246 = zext i32 %245 to i64
  %247 = getelementptr inbounds nuw i8, ptr %244, i64 %246
  %248 = load i8, ptr %247, align 1
  %249 = load ptr, ptr %12, align 8
  store i8 %248, ptr %249, align 1
  call void @llvm.lifetime.end.p0(i64 4, ptr %16) #7
  br label %250

250:                                              ; preds = %186, %143
  store i32 0, ptr %14, align 4
  br label %251

251:                                              ; preds = %250, %116, %31
  call void @llvm.lifetime.end.p0(i64 1, ptr %13) #7
  %252 = load i32, ptr %14, align 4
  switch i32 %252, label %254 [
    i32 0, label %253
    i32 1, label %253
  ]

253:                                              ; preds = %251, %251
  ret void

254:                                              ; preds = %251
  unreachable
}