; Function Attrs: mustprogress nofree norecurse nosync nounwind willreturn memory(read, argmem: readwrite, inaccessiblemem: none) uwtable
define hidden void @SDL_GetRGB_REAL(i32 noundef %0, ptr noundef readonly captures(address_is_null) %1, ptr noundef readonly captures(address_is_null) %2, ptr noundef writeonly captures(address_is_null) %3, ptr noundef writeonly captures(address_is_null) %4, ptr noundef writeonly captures(address_is_null) %5) local_unnamed_addr #12 {
  %.not = icmp eq ptr %3, null
  %.not71 = icmp eq ptr %4, null
  %.not72 = icmp eq ptr %5, null
  %.not73 = icmp eq ptr %1, null
  br i1 %.not73, label %7, label %8

7:                                                ; preds = %6
  br i1 %.not72, label %.cont98, label %.else100

.else100:                                         ; preds = %7
  store i8 0, ptr %5, align 1
  br label %.cont98

.cont98:                                          ; preds = %7, %.else100
  br i1 %.not71, label %.cont, label %.else

.else:                                            ; preds = %.cont98
  store i8 0, ptr %4, align 1
  br label %.cont

.cont:                                            ; preds = %.cont98, %.else
  br i1 %.not, label %.cont.cont, label %.cont.else

.cont.else:                                       ; preds = %.cont
  store i8 0, ptr %3, align 1
  br label %.cont.cont

8:                                                ; preds = %6
  %9 = load i32, ptr %1, align 4
  %.not74 = icmp eq i32 %9, 0
  %.mask = and i32 %9, -268435456
  %.not75 = icmp eq i32 %.mask, 268435456
  %or.cond = or i1 %.not74, %.not75
  br i1 %or.cond, label %10, label %60

10:                                               ; preds = %8
  %11 = lshr i32 %9, 24
  %12 = and i32 %11, 15
  switch i32 %12, label %30 [
    i32 1, label %13
    i32 12, label %13
    i32 2, label %13
    i32 3, label %13
  ]

13:                                               ; preds = %10, %10, %10, %10
  %.not76 = icmp eq ptr %2, null
  br i1 %.not76, label %29, label %14

14:                                               ; preds = %13
  %15 = load i32, ptr %2, align 8
  %16 = icmp ult i32 %0, %15
  br i1 %16, label %17, label %29

17:                                               ; preds = %14
  %18 = getelementptr inbounds nuw i8, ptr %2, i64 8
  %19 = zext i32 %0 to i64
  br i1 %.not, label %.cont104, label %.else106

.else106:                                         ; preds = %17
  %20 = load ptr, ptr %18, align 8
  %21 = getelementptr inbounds nuw %struct.SDL_Color, ptr %20, i64 %19
  %22 = load i8, ptr %21, align 1
  store i8 %22, ptr %3, align 1
  br label %.cont104

.cont104:                                         ; preds = %17, %.else106
  br i1 %.not71, label %.cont86, label %.else88

.else88:                                          ; preds = %.cont104
  %23 = load ptr, ptr %18, align 8
  %24 = getelementptr inbounds nuw %struct.SDL_Color, ptr %23, i64 %19, i32 1
  %25 = load i8, ptr %24, align 1
  store i8 %25, ptr %4, align 1
  br label %.cont86

.cont86:                                          ; preds = %.cont104, %.else88
  br i1 %.not72, label %.cont.cont, label %.cont86.else

.cont86.else:                                     ; preds = %.cont86
  %26 = load ptr, ptr %18, align 8
  %27 = getelementptr inbounds nuw %struct.SDL_Color, ptr %26, i64 %19, i32 2
  %28 = load i8, ptr %27, align 1
  store i8 %28, ptr %5, align 1
  br label %.cont.cont

29:                                               ; preds = %14, %13
  br i1 %.not72, label %.cont101, label %.else103

.else103:                                         ; preds = %29
  store i8 0, ptr %5, align 1
  br label %.cont101

.cont101:                                         ; preds = %29, %.else103
  br i1 %.not71, label %.cont83, label %.else85

.else85:                                          ; preds = %.cont101
  store i8 0, ptr %4, align 1
  br label %.cont83

.cont83:                                          ; preds = %.cont101, %.else85
  br i1 %.not, label %.cont.cont, label %.cont83.else

.cont83.else:                                     ; preds = %.cont83
  store i8 0, ptr %3, align 1
  br label %.cont.cont

30:                                               ; preds = %10
  %31 = and i32 %9, 252641280
  %or.cond82 = icmp eq i32 %31, 101122048
  br i1 %or.cond82, label %32, label %60

32:                                               ; preds = %30
  br i1 %.not, label %.cont107, label %.else109

.else109:                                         ; preds = %32
  %33 = getelementptr inbounds nuw i8, ptr %1, i64 8
  %34 = load i32, ptr %33, align 4
  %35 = and i32 %34, %0
  %36 = getelementptr inbounds nuw i8, ptr %1, i64 28
  %37 = load i8, ptr %36, align 4
  %38 = zext nneg i8 %37 to i32
  %39 = lshr i32 %35, %38
  %40 = lshr i32 %39, 2
  %41 = trunc i32 %40 to i8
  store i8 %41, ptr %3, align 1
  br label %.cont107

.cont107:                                         ; preds = %32, %.else109
  br i1 %.not71, label %.cont89, label %.else91

.else91:                                          ; preds = %.cont107
  %42 = getelementptr inbounds nuw i8, ptr %1, i64 12
  %43 = load i32, ptr %42, align 4
  %44 = and i32 %43, %0
  %45 = getelementptr inbounds nuw i8, ptr %1, i64 29
  %46 = load i8, ptr %45, align 1
  %47 = zext nneg i8 %46 to i32
  %48 = lshr i32 %44, %47
  %49 = lshr i32 %48, 2
  %50 = trunc i32 %49 to i8
  store i8 %50, ptr %4, align 1
  br label %.cont89

.cont89:                                          ; preds = %.cont107, %.else91
  %51 = getelementptr inbounds nuw i8, ptr %1, i64 16
  %52 = load i32, ptr %51, align 4
  %53 = and i32 %52, %0
  %54 = getelementptr inbounds nuw i8, ptr %1, i64 30
  %55 = load i8, ptr %54, align 2
  %56 = zext nneg i8 %55 to i32
  %57 = lshr i32 %53, %56
  %58 = lshr i32 %57, 2
  %59 = trunc i32 %58 to i8
  br label %106

60:                                               ; preds = %8, %30
  br i1 %.not, label %.cont110, label %.else112

.else112:                                         ; preds = %60
  %61 = getelementptr inbounds nuw i8, ptr %1, i64 24
  %62 = load i8, ptr %61, align 4
  %63 = zext i8 %62 to i64
  %64 = getelementptr inbounds nuw [9 x ptr], ptr @SDL_expand_byte, i64 0, i64 %63
  %65 = load ptr, ptr %64, align 8
  %66 = getelementptr inbounds nuw i8, ptr %1, i64 8
  %67 = load i32, ptr %66, align 4
  %68 = and i32 %67, %0
  %69 = getelementptr inbounds nuw i8, ptr %1, i64 28
  %70 = load i8, ptr %69, align 4
  %71 = zext nneg i8 %70 to i32
  %72 = lshr i32 %68, %71
  %73 = zext i32 %72 to i64
  %74 = getelementptr inbounds nuw i8, ptr %65, i64 %73
  %75 = load i8, ptr %74, align 1
  store i8 %75, ptr %3, align 1
  br label %.cont110

.cont110:                                         ; preds = %60, %.else112
  br i1 %.not71, label %.cont92, label %.else94

.else94:                                          ; preds = %.cont110
  %76 = getelementptr inbounds nuw i8, ptr %1, i64 25
  %77 = load i8, ptr %76, align 1
  %78 = zext i8 %77 to i64
  %79 = getelementptr inbounds nuw [9 x ptr], ptr @SDL_expand_byte, i64 0, i64 %78
  %80 = load ptr, ptr %79, align 8
  %81 = getelementptr inbounds nuw i8, ptr %1, i64 12
  %82 = load i32, ptr %81, align 4
  %83 = and i32 %82, %0
  %84 = getelementptr inbounds nuw i8, ptr %1, i64 29
  %85 = load i8, ptr %84, align 1
  %86 = zext nneg i8 %85 to i32
  %87 = lshr i32 %83, %86
  %88 = zext i32 %87 to i64
  %89 = getelementptr inbounds nuw i8, ptr %80, i64 %88
  %90 = load i8, ptr %89, align 1
  store i8 %90, ptr %4, align 1
  br label %.cont92

.cont92:                                          ; preds = %.cont110, %.else94
  %91 = getelementptr inbounds nuw i8, ptr %1, i64 16
  %92 = load i32, ptr %91, align 4
  %93 = and i32 %92, %0
  %94 = getelementptr inbounds nuw i8, ptr %1, i64 30
  %95 = load i8, ptr %94, align 2
  %96 = zext nneg i8 %95 to i32
  %97 = lshr i32 %93, %96
  %98 = getelementptr inbounds nuw i8, ptr %1, i64 26
  %99 = load i8, ptr %98, align 2
  %100 = zext i8 %99 to i64
  %101 = getelementptr inbounds nuw [9 x ptr], ptr @SDL_expand_byte, i64 0, i64 %100
  %102 = load ptr, ptr %101, align 8
  %103 = zext i32 %97 to i64
  %104 = getelementptr inbounds nuw i8, ptr %102, i64 %103
  %105 = load i8, ptr %104, align 1
  br label %106

106:                                              ; preds = %.cont92, %.cont89
  %storemerge = phi i8 [ %59, %.cont89 ], [ %105, %.cont92 ]
  br i1 %.not72, label %.cont.cont, label %.else97

.else97:                                          ; preds = %106
  store i8 %storemerge, ptr %5, align 1
  br label %.cont.cont

.cont.cont:                                       ; preds = %.else97, %106, %.cont83.else, %.cont83, %.cont86.else, %.cont86, %.cont.else, %.cont
  ret void
}